; Function Attrs: mustprogress nofree norecurse nosync nounwind memory(readwrite, inaccessiblemem: none) uwtable
define hidden void @_ZN3smt13unmark_enodesEjPKPNS_5enodeE(i32 noundef %num_enodes, ptr nocapture noundef readonly %enodes) local_unnamed_addr #8 {
entry:
  %cmp3.not = icmp eq i32 %num_enodes, 0
  br i1 %cmp3.not, label %for.end, label %for.body.preheader

for.body.preheader:                               ; preds = %entry
  %wide.trip.count = zext i32 %num_enodes to i64
  br label %for.body

for.body:                                         ; preds = %for.body.preheader, %for.body
  %indvars.iv = phi i64 [ 0, %for.body.preheader ], [ %indvars.iv.next, %for.body ]
  %arrayidx = getelementptr inbounds ptr, ptr %enodes, i64 %indvars.iv
  %0 = load ptr, ptr %arrayidx, align 8
  %m_mark.i = getelementptr inbounds i8, ptr %0, i64 44
  %bf.load.i = load i16, ptr %m_mark.i, align 4
  %bf.clear.i = and i16 %bf.load.i, -2
  store i16 %bf.clear.i, ptr %m_mark.i, align 4
  %indvars.iv.next = add nuw nsw i64 %indvars.iv, 1
  %exitcond.not = icmp eq i64 %indvars.iv.next, %wide.trip.count
  br i1 %exitcond.not, label %for.end, label %for.body, !llvm.loop !15

for.end:                                          ; preds = %for.body, %entry
  ret void
}